libQt5Mqtt.so.5:Qt_5
libQt5Mqtt.so.5:Qt_5.0
libQt5Mqtt.so.5:Qt_5.1
libQt5Mqtt.so.5:Qt_5.10
libQt5Mqtt.so.5:Qt_5.11
libQt5Mqtt.so.5:Qt_5.12
libQt5Mqtt.so.5:Qt_5.2
libQt5Mqtt.so.5:Qt_5.3
libQt5Mqtt.so.5:Qt_5.4
libQt5Mqtt.so.5:Qt_5.5
libQt5Mqtt.so.5:Qt_5.6
libQt5Mqtt.so.5:Qt_5.7
libQt5Mqtt.so.5:Qt_5.8
libQt5Mqtt.so.5:Qt_5.9
libQt5Mqtt.so.5:Qt_5_PRIVATE_API
libQt5Mqtt.so.5:_Z5qHashRK14QMqttTopicNamej
libQt5Mqtt.so.5:_Z5qHashRK16QMqttTopicFilterj
libQt5Mqtt.so.5:_ZN11QMqttClient10setWillQoSEh
libQt5Mqtt.so.5:_ZN11QMqttClient11messageSentEi
libQt5Mqtt.so.5:_ZN11QMqttClient11portChangedEt
libQt5Mqtt.so.5:_ZN11QMqttClient11qt_metacallEN11QMetaObject4CallEiPPv
libQt5Mqtt.so.5:_ZN11QMqttClient11qt_metacastEPKc
libQt5Mqtt.so.5:_ZN11QMqttClient11requestPingEv
libQt5Mqtt.so.5:_ZN11QMqttClient11setClientIdERK7QString
libQt5Mqtt.so.5:_ZN11QMqttClient11setHostnameERK7QString
libQt5Mqtt.so.5:_ZN11QMqttClient11setPasswordERK7QString
libQt5Mqtt.so.5:_ZN11QMqttClient11setUsernameERK7QString
libQt5Mqtt.so.5:_ZN11QMqttClient11unsubscribeERK16QMqttTopicFilter
libQt5Mqtt.so.5:_ZN11QMqttClient11unsubscribeERK16QMqttTopicFilterRK29QMqttUnsubscriptionProperties
libQt5Mqtt.so.5:_ZN11QMqttClient12authenticateERK29QMqttAuthenticationProperties
libQt5Mqtt.so.5:_ZN11QMqttClient12disconnectedEv
libQt5Mqtt.so.5:_ZN11QMqttClient12errorChangedENS_11ClientErrorE
libQt5Mqtt.so.5:_ZN11QMqttClient12setKeepAliveEt
libQt5Mqtt.so.5:_ZN11QMqttClient12setTransportEP9QIODeviceNS_13TransportTypeE
libQt5Mqtt.so.5:_ZN11QMqttClient12setWillTopicERK7QString
libQt5Mqtt.so.5:_ZN11QMqttClient12stateChangedENS_11ClientStateE
libQt5Mqtt.so.5:_ZN11QMqttClient13connectToHostEbRK7QString
libQt5Mqtt.so.5:_ZN11QMqttClient13connectToHostEv
libQt5Mqtt.so.5:_ZN11QMqttClient13setWillRetainEb
libQt5Mqtt.so.5:_ZN11QMqttClient14setWillMessageERK10QByteArray
libQt5Mqtt.so.5:_ZN11QMqttClient14willQoSChangedEh
libQt5Mqtt.so.5:_ZN11QMqttClient15clientIdChangedE7QString
libQt5Mqtt.so.5:_ZN11QMqttClient15hostnameChangedE7QString
libQt5Mqtt.so.5:_ZN11QMqttClient15messageReceivedERK10QByteArrayRK14QMqttTopicName
libQt5Mqtt.so.5:_ZN11QMqttClient15passwordChangedE7QString
libQt5Mqtt.so.5:_ZN11QMqttClient15setCleanSessionEb
libQt5Mqtt.so.5:_ZN11QMqttClient15usernameChangedE7QString
libQt5Mqtt.so.5:_ZN11QMqttClient16keepAliveChangedEt
libQt5Mqtt.so.5:_ZN11QMqttClient16willTopicChangedE7QString
libQt5Mqtt.so.5:_ZN11QMqttClient17willRetainChangedEb
libQt5Mqtt.so.5:_ZN11QMqttClient18disconnectFromHostEv
libQt5Mqtt.so.5:_ZN11QMqttClient18setProtocolVersionENS_15ProtocolVersionE
libQt5Mqtt.so.5:_ZN11QMqttClient18willMessageChangedE10QByteArray
libQt5Mqtt.so.5:_ZN11QMqttClient19cleanSessionChangedEb
libQt5Mqtt.so.5:_ZN11QMqttClient20messageStatusChangedEiN5QMqtt13MessageStatusERK28QMqttMessageStatusProperties
libQt5Mqtt.so.5:_ZN11QMqttClient20pingResponseReceivedEv
libQt5Mqtt.so.5:_ZN11QMqttClient21brokerSessionRestoredEv
libQt5Mqtt.so.5:_ZN11QMqttClient21setLastWillPropertiesERK23QMqttLastWillProperties
libQt5Mqtt.so.5:_ZN11QMqttClient22authenticationFinishedERK29QMqttAuthenticationProperties
libQt5Mqtt.so.5:_ZN11QMqttClient22connectToHostEncryptedERK7QString
libQt5Mqtt.so.5:_ZN11QMqttClient22protocolVersionChangedENS_15ProtocolVersionE
libQt5Mqtt.so.5:_ZN11QMqttClient23authenticationRequestedERK29QMqttAuthenticationProperties
libQt5Mqtt.so.5:_ZN11QMqttClient23setConnectionPropertiesERK25QMqttConnectionProperties
libQt5Mqtt.so.5:_ZN11QMqttClient7publishERK14QMqttTopicNameRK10QByteArrayhb
libQt5Mqtt.so.5:_ZN11QMqttClient7publishERK14QMqttTopicNameRK22QMqttPublishPropertiesRK10QByteArrayhb
libQt5Mqtt.so.5:_ZN11QMqttClient7setPortEt
libQt5Mqtt.so.5:_ZN11QMqttClient8setErrorENS_11ClientErrorE
libQt5Mqtt.so.5:_ZN11QMqttClient8setStateENS_11ClientStateE
libQt5Mqtt.so.5:_ZN11QMqttClient9connectedEv
libQt5Mqtt.so.5:_ZN11QMqttClient9subscribeERK16QMqttTopicFilterRK27QMqttSubscriptionPropertiesh
libQt5Mqtt.so.5:_ZN11QMqttClient9subscribeERK16QMqttTopicFilterh
libQt5Mqtt.so.5:_ZN11QMqttClientC1EP7QObject
libQt5Mqtt.so.5:_ZN11QMqttClientC2EP7QObject
libQt5Mqtt.so.5:_ZN12QMqttMessageC1ERK14QMqttTopicNameRK10QByteArraythbb
libQt5Mqtt.so.5:_ZN12QMqttMessageC1ERKS_
libQt5Mqtt.so.5:_ZN12QMqttMessageC1Ev
libQt5Mqtt.so.5:_ZN12QMqttMessageC2ERK14QMqttTopicNameRK10QByteArraythbb
libQt5Mqtt.so.5:_ZN12QMqttMessageC2ERKS_
libQt5Mqtt.so.5:_ZN12QMqttMessageC2Ev
libQt5Mqtt.so.5:_ZN12QMqttMessageD1Ev
libQt5Mqtt.so.5:_ZN12QMqttMessageD2Ev
libQt5Mqtt.so.5:_ZN12QMqttMessageaSERKS_
libQt5Mqtt.so.5:_ZN14QMqttTopicName7setNameERK7QString
libQt5Mqtt.so.5:_ZN14QMqttTopicNameC1ERK13QLatin1String
libQt5Mqtt.so.5:_ZN14QMqttTopicNameC1ERK7QString
libQt5Mqtt.so.5:_ZN14QMqttTopicNameC1ERKS_
libQt5Mqtt.so.5:_ZN14QMqttTopicNameC2ERK13QLatin1String
libQt5Mqtt.so.5:_ZN14QMqttTopicNameC2ERK7QString
libQt5Mqtt.so.5:_ZN14QMqttTopicNameC2ERKS_
libQt5Mqtt.so.5:_ZN14QMqttTopicNameD1Ev
libQt5Mqtt.so.5:_ZN14QMqttTopicNameD2Ev
libQt5Mqtt.so.5:_ZN14QMqttTopicNameaSERKS_
libQt5Mqtt.so.5:_ZN15QMqttStringPair7setNameERK7QString
libQt5Mqtt.so.5:_ZN15QMqttStringPair8setValueERK7QString
libQt5Mqtt.so.5:_ZN15QMqttStringPairC1ERK7QStringS2_
libQt5Mqtt.so.5:_ZN15QMqttStringPairC1ERKS_
libQt5Mqtt.so.5:_ZN15QMqttStringPairC1Ev
libQt5Mqtt.so.5:_ZN15QMqttStringPairC2ERK7QStringS2_
libQt5Mqtt.so.5:_ZN15QMqttStringPairC2ERKS_
libQt5Mqtt.so.5:_ZN15QMqttStringPairC2Ev
libQt5Mqtt.so.5:_ZN15QMqttStringPairD1Ev
libQt5Mqtt.so.5:_ZN15QMqttStringPairD2Ev
libQt5Mqtt.so.5:_ZN15QMqttStringPairaSERKS_
libQt5Mqtt.so.5:_ZN16QMqttTopicFilter9setFilterERK7QString
libQt5Mqtt.so.5:_ZN16QMqttTopicFilterC1ERK13QLatin1String
libQt5Mqtt.so.5:_ZN16QMqttTopicFilterC1ERK7QString
libQt5Mqtt.so.5:_ZN16QMqttTopicFilterC1ERKS_
libQt5Mqtt.so.5:_ZN16QMqttTopicFilterC2ERK13QLatin1String
libQt5Mqtt.so.5:_ZN16QMqttTopicFilterC2ERK7QString
libQt5Mqtt.so.5:_ZN16QMqttTopicFilterC2ERKS_
libQt5Mqtt.so.5:_ZN16QMqttTopicFilterD1Ev
libQt5Mqtt.so.5:_ZN16QMqttTopicFilterD2Ev
libQt5Mqtt.so.5:_ZN16QMqttTopicFilteraSERKS_
libQt5Mqtt.so.5:_ZN17QMqttSubscription10qosChangedEh
libQt5Mqtt.so.5:_ZN17QMqttSubscription11qt_metacallEN11QMetaObject4CallEiPPv
libQt5Mqtt.so.5:_ZN17QMqttSubscription11qt_metacastEPKc
libQt5Mqtt.so.5:_ZN17QMqttSubscription11unsubscribeEv
libQt5Mqtt.so.5:_ZN17QMqttSubscription12stateChangedENS_17SubscriptionStateE
libQt5Mqtt.so.5:_ZN17QMqttSubscription15messageReceivedE12QMqttMessage
libQt5Mqtt.so.5:_ZN17QMqttSubscription21setSharedSubscriptionEb
libQt5Mqtt.so.5:_ZN17QMqttSubscription25setSharedSubscriptionNameERK7QString
libQt5Mqtt.so.5:_ZN17QMqttSubscription6setQosEh
libQt5Mqtt.so.5:_ZN17QMqttSubscription8setStateENS_17SubscriptionStateE
libQt5Mqtt.so.5:_ZN17QMqttSubscription8setTopicERK16QMqttTopicFilter
libQt5Mqtt.so.5:_ZN17QMqttSubscription9setClientEP11QMqttClient
libQt5Mqtt.so.5:_ZN17QMqttSubscriptionC1EP7QObject
libQt5Mqtt.so.5:_ZN17QMqttSubscriptionC2EP7QObject
libQt5Mqtt.so.5:_ZN17QMqttSubscriptionD0Ev
libQt5Mqtt.so.5:_ZN17QMqttSubscriptionD1Ev
libQt5Mqtt.so.5:_ZN17QMqttSubscriptionD2Ev
libQt5Mqtt.so.5:_ZN22QMqttPublishProperties13setTopicAliasEt
libQt5Mqtt.so.5:_ZN22QMqttPublishProperties14setContentTypeERK7QString
libQt5Mqtt.so.5:_ZN22QMqttPublishProperties16setResponseTopicERK7QString
libQt5Mqtt.so.5:_ZN22QMqttPublishProperties17setUserPropertiesERK19QMqttUserProperties
libQt5Mqtt.so.5:_ZN22QMqttPublishProperties18setCorrelationDataERK10QByteArray
libQt5Mqtt.so.5:_ZN22QMqttPublishProperties24setMessageExpiryIntervalEj
libQt5Mqtt.so.5:_ZN22QMqttPublishProperties25setPayloadFormatIndicatorEN5QMqtt22PayloadFormatIndicatorE
libQt5Mqtt.so.5:_ZN22QMqttPublishProperties26setSubscriptionIdentifiersERK5QListIjE
libQt5Mqtt.so.5:_ZN22QMqttPublishPropertiesC1ERKS_
libQt5Mqtt.so.5:_ZN22QMqttPublishPropertiesC1Ev
libQt5Mqtt.so.5:_ZN22QMqttPublishPropertiesC2ERKS_
libQt5Mqtt.so.5:_ZN22QMqttPublishPropertiesC2Ev
libQt5Mqtt.so.5:_ZN22QMqttPublishPropertiesD1Ev
libQt5Mqtt.so.5:_ZN22QMqttPublishPropertiesD2Ev
libQt5Mqtt.so.5:_ZN22QMqttPublishPropertiesaSERKS_
libQt5Mqtt.so.5:_ZN23QMqttLastWillProperties14setContentTypeERK7QString
libQt5Mqtt.so.5:_ZN23QMqttLastWillProperties16setResponseTopicERK7QString
libQt5Mqtt.so.5:_ZN23QMqttLastWillProperties17setUserPropertiesERK19QMqttUserProperties
libQt5Mqtt.so.5:_ZN23QMqttLastWillProperties18setCorrelationDataERK10QByteArray
libQt5Mqtt.so.5:_ZN23QMqttLastWillProperties20setWillDelayIntervalEj
libQt5Mqtt.so.5:_ZN23QMqttLastWillProperties24setMessageExpiryIntervalEj
libQt5Mqtt.so.5:_ZN23QMqttLastWillProperties25setPayloadFormatIndicatorEN5QMqtt22PayloadFormatIndicatorE
libQt5Mqtt.so.5:_ZN23QMqttLastWillPropertiesC1ERKS_
libQt5Mqtt.so.5:_ZN23QMqttLastWillPropertiesC1Ev
libQt5Mqtt.so.5:_ZN23QMqttLastWillPropertiesC2ERKS_
libQt5Mqtt.so.5:_ZN23QMqttLastWillPropertiesC2Ev
libQt5Mqtt.so.5:_ZN23QMqttLastWillPropertiesD1Ev
libQt5Mqtt.so.5:_ZN23QMqttLastWillPropertiesD2Ev
libQt5Mqtt.so.5:_ZN23QMqttLastWillPropertiesaSERKS_
libQt5Mqtt.so.5:_ZN25QMqttConnectionProperties17setMaximumReceiveEt
libQt5Mqtt.so.5:_ZN25QMqttConnectionProperties17setUserPropertiesERK19QMqttUserProperties
libQt5Mqtt.so.5:_ZN25QMqttConnectionProperties20setMaximumPacketSizeEj
libQt5Mqtt.so.5:_ZN25QMqttConnectionProperties20setMaximumTopicAliasEt
libQt5Mqtt.so.5:_ZN25QMqttConnectionProperties21setAuthenticationDataERK10QByteArray
libQt5Mqtt.so.5:_ZN25QMqttConnectionProperties23setAuthenticationMethodERK7QString
libQt5Mqtt.so.5:_ZN25QMqttConnectionProperties24setSessionExpiryIntervalEj
libQt5Mqtt.so.5:_ZN25QMqttConnectionProperties28setRequestProblemInformationEb
libQt5Mqtt.so.5:_ZN25QMqttConnectionProperties29setRequestResponseInformationEb
libQt5Mqtt.so.5:_ZN25QMqttConnectionPropertiesC1ERKS_
libQt5Mqtt.so.5:_ZN25QMqttConnectionPropertiesC1Ev
libQt5Mqtt.so.5:_ZN25QMqttConnectionPropertiesC2ERKS_
libQt5Mqtt.so.5:_ZN25QMqttConnectionPropertiesC2Ev
libQt5Mqtt.so.5:_ZN25QMqttConnectionPropertiesD1Ev
libQt5Mqtt.so.5:_ZN25QMqttConnectionPropertiesD2Ev
libQt5Mqtt.so.5:_ZN25QMqttConnectionPropertiesaSERKS_
libQt5Mqtt.so.5:_ZN27QMqttSubscriptionProperties17setUserPropertiesERK19QMqttUserProperties
libQt5Mqtt.so.5:_ZN27QMqttSubscriptionProperties25setSubscriptionIdentifierEj
libQt5Mqtt.so.5:_ZN27QMqttSubscriptionPropertiesC1ERKS_
libQt5Mqtt.so.5:_ZN27QMqttSubscriptionPropertiesC1Ev
libQt5Mqtt.so.5:_ZN27QMqttSubscriptionPropertiesC2ERKS_
libQt5Mqtt.so.5:_ZN27QMqttSubscriptionPropertiesC2Ev
libQt5Mqtt.so.5:_ZN27QMqttSubscriptionPropertiesD1Ev
libQt5Mqtt.so.5:_ZN27QMqttSubscriptionPropertiesD2Ev
libQt5Mqtt.so.5:_ZN27QMqttSubscriptionPropertiesaSERKS_
libQt5Mqtt.so.5:_ZN28QMqttMessageStatusPropertiesC1ERKS_
libQt5Mqtt.so.5:_ZN28QMqttMessageStatusPropertiesC1Ev
libQt5Mqtt.so.5:_ZN28QMqttMessageStatusPropertiesC2ERKS_
libQt5Mqtt.so.5:_ZN28QMqttMessageStatusPropertiesC2Ev
libQt5Mqtt.so.5:_ZN28QMqttMessageStatusPropertiesD1Ev
libQt5Mqtt.so.5:_ZN28QMqttMessageStatusPropertiesD2Ev
libQt5Mqtt.so.5:_ZN28QMqttMessageStatusPropertiesaSERKS_
libQt5Mqtt.so.5:_ZN29QMqttAuthenticationProperties17setUserPropertiesERK19QMqttUserProperties
libQt5Mqtt.so.5:_ZN29QMqttAuthenticationProperties21setAuthenticationDataERK10QByteArray
libQt5Mqtt.so.5:_ZN29QMqttAuthenticationProperties23setAuthenticationMethodERK7QString
libQt5Mqtt.so.5:_ZN29QMqttAuthenticationProperties9setReasonERK7QString
libQt5Mqtt.so.5:_ZN29QMqttAuthenticationPropertiesC1ERKS_
libQt5Mqtt.so.5:_ZN29QMqttAuthenticationPropertiesC1Ev
libQt5Mqtt.so.5:_ZN29QMqttAuthenticationPropertiesC2ERKS_
libQt5Mqtt.so.5:_ZN29QMqttAuthenticationPropertiesC2Ev
libQt5Mqtt.so.5:_ZN29QMqttAuthenticationPropertiesD1Ev
libQt5Mqtt.so.5:_ZN29QMqttAuthenticationPropertiesD2Ev
libQt5Mqtt.so.5:_ZN29QMqttAuthenticationPropertiesaSERKS_
libQt5Mqtt.so.5:_ZN29QMqttUnsubscriptionProperties17setUserPropertiesERK19QMqttUserProperties
libQt5Mqtt.so.5:_ZN29QMqttUnsubscriptionPropertiesC1ERKS_
libQt5Mqtt.so.5:_ZN29QMqttUnsubscriptionPropertiesC1Ev
libQt5Mqtt.so.5:_ZN29QMqttUnsubscriptionPropertiesC2ERKS_
libQt5Mqtt.so.5:_ZN29QMqttUnsubscriptionPropertiesC2Ev
libQt5Mqtt.so.5:_ZN29QMqttUnsubscriptionPropertiesD1Ev
libQt5Mqtt.so.5:_ZN29QMqttUnsubscriptionPropertiesD2Ev
libQt5Mqtt.so.5:_ZN29QMqttUnsubscriptionPropertiesaSERKS_
libQt5Mqtt.so.5:_ZN31QMqttServerConnectionPropertiesC1ERKS_
libQt5Mqtt.so.5:_ZN31QMqttServerConnectionPropertiesC1Ev
libQt5Mqtt.so.5:_ZN31QMqttServerConnectionPropertiesC2ERKS_
libQt5Mqtt.so.5:_ZN31QMqttServerConnectionPropertiesC2Ev
libQt5Mqtt.so.5:_ZN31QMqttServerConnectionPropertiesD1Ev
libQt5Mqtt.so.5:_ZN31QMqttServerConnectionPropertiesD2Ev
libQt5Mqtt.so.5:_ZN31QMqttServerConnectionPropertiesaSERKS_
libQt5Mqtt.so.5:_ZNK11QMqttClient10metaObjectEv
libQt5Mqtt.so.5:_ZNK11QMqttClient10willRetainEv
libQt5Mqtt.so.5:_ZNK11QMqttClient11willMessageEv
libQt5Mqtt.so.5:_ZNK11QMqttClient12cleanSessionEv
libQt5Mqtt.so.5:_ZNK11QMqttClient15protocolVersionEv
libQt5Mqtt.so.5:_ZNK11QMqttClient18lastWillPropertiesEv
libQt5Mqtt.so.5:_ZNK11QMqttClient20connectionPropertiesEv
libQt5Mqtt.so.5:_ZNK11QMqttClient26serverConnectionPropertiesEv
libQt5Mqtt.so.5:_ZNK11QMqttClient4portEv
libQt5Mqtt.so.5:_ZNK11QMqttClient5errorEv
libQt5Mqtt.so.5:_ZNK11QMqttClient5stateEv
libQt5Mqtt.so.5:_ZNK11QMqttClient7willQoSEv
libQt5Mqtt.so.5:_ZNK11QMqttClient8clientIdEv
libQt5Mqtt.so.5:_ZNK11QMqttClient8hostnameEv
libQt5Mqtt.so.5:_ZNK11QMqttClient8passwordEv
libQt5Mqtt.so.5:_ZNK11QMqttClient8usernameEv
libQt5Mqtt.so.5:_ZNK11QMqttClient9keepAliveEv
libQt5Mqtt.so.5:_ZNK11QMqttClient9transportEv
libQt5Mqtt.so.5:_ZNK11QMqttClient9willTopicEv
libQt5Mqtt.so.5:_ZNK12QMqttMessage17publishPropertiesEv
libQt5Mqtt.so.5:_ZNK12QMqttMessage2idEv
libQt5Mqtt.so.5:_ZNK12QMqttMessage3qosEv
libQt5Mqtt.so.5:_ZNK12QMqttMessage5topicEv
libQt5Mqtt.so.5:_ZNK12QMqttMessage6retainEv
libQt5Mqtt.so.5:_ZNK12QMqttMessage7payloadEv
libQt5Mqtt.so.5:_ZNK12QMqttMessage9duplicateEv
libQt5Mqtt.so.5:_ZNK12QMqttMessageeqERKS_
libQt5Mqtt.so.5:_ZNK14QMqttTopicName10levelCountEv
libQt5Mqtt.so.5:_ZNK14QMqttTopicName4nameEv
libQt5Mqtt.so.5:_ZNK14QMqttTopicName6levelsEv
libQt5Mqtt.so.5:_ZNK14QMqttTopicName7isValidEv
libQt5Mqtt.so.5:_ZNK15QMqttStringPair4nameEv
libQt5Mqtt.so.5:_ZNK15QMqttStringPair5valueEv
libQt5Mqtt.so.5:_ZNK15QMqttStringPaireqERKS_
libQt5Mqtt.so.5:_ZNK15QMqttStringPairneERKS_
libQt5Mqtt.so.5:_ZNK16QMqttTopicFilter22sharedSubscriptionNameEv
libQt5Mqtt.so.5:_ZNK16QMqttTopicFilter5matchERK14QMqttTopicName6QFlagsINS_11MatchOptionEE
libQt5Mqtt.so.5:_ZNK16QMqttTopicFilter6filterEv
libQt5Mqtt.so.5:_ZNK16QMqttTopicFilter7isValidEv
libQt5Mqtt.so.5:_ZNK17QMqttSubscription10metaObjectEv
libQt5Mqtt.so.5:_ZNK17QMqttSubscription10reasonCodeEv
libQt5Mqtt.so.5:_ZNK17QMqttSubscription14userPropertiesEv
libQt5Mqtt.so.5:_ZNK17QMqttSubscription20isSharedSubscriptionEv
libQt5Mqtt.so.5:_ZNK17QMqttSubscription22sharedSubscriptionNameEv
libQt5Mqtt.so.5:_ZNK17QMqttSubscription3qosEv
libQt5Mqtt.so.5:_ZNK17QMqttSubscription5stateEv
libQt5Mqtt.so.5:_ZNK17QMqttSubscription5topicEv
libQt5Mqtt.so.5:_ZNK17QMqttSubscription6reasonEv
libQt5Mqtt.so.5:_ZNK22QMqttPublishProperties10topicAliasEv
libQt5Mqtt.so.5:_ZNK22QMqttPublishProperties11contentTypeEv
libQt5Mqtt.so.5:_ZNK22QMqttPublishProperties13responseTopicEv
libQt5Mqtt.so.5:_ZNK22QMqttPublishProperties14userPropertiesEv
libQt5Mqtt.so.5:_ZNK22QMqttPublishProperties15correlationDataEv
libQt5Mqtt.so.5:_ZNK22QMqttPublishProperties19availablePropertiesEv
libQt5Mqtt.so.5:_ZNK22QMqttPublishProperties21messageExpiryIntervalEv
libQt5Mqtt.so.5:_ZNK22QMqttPublishProperties22payloadFormatIndicatorEv
libQt5Mqtt.so.5:_ZNK22QMqttPublishProperties23subscriptionIdentifiersEv
libQt5Mqtt.so.5:_ZNK23QMqttLastWillProperties11contentTypeEv
libQt5Mqtt.so.5:_ZNK23QMqttLastWillProperties13responseTopicEv
libQt5Mqtt.so.5:_ZNK23QMqttLastWillProperties14userPropertiesEv
libQt5Mqtt.so.5:_ZNK23QMqttLastWillProperties15correlationDataEv
libQt5Mqtt.so.5:_ZNK23QMqttLastWillProperties17willDelayIntervalEv
libQt5Mqtt.so.5:_ZNK23QMqttLastWillProperties21messageExpiryIntervalEv
libQt5Mqtt.so.5:_ZNK23QMqttLastWillProperties22payloadFormatIndicatorEv
libQt5Mqtt.so.5:_ZNK25QMqttConnectionProperties14maximumReceiveEv
libQt5Mqtt.so.5:_ZNK25QMqttConnectionProperties14userPropertiesEv
libQt5Mqtt.so.5:_ZNK25QMqttConnectionProperties17maximumPacketSizeEv
libQt5Mqtt.so.5:_ZNK25QMqttConnectionProperties17maximumTopicAliasEv
libQt5Mqtt.so.5:_ZNK25QMqttConnectionProperties18authenticationDataEv
libQt5Mqtt.so.5:_ZNK25QMqttConnectionProperties20authenticationMethodEv
libQt5Mqtt.so.5:_ZNK25QMqttConnectionProperties21sessionExpiryIntervalEv
libQt5Mqtt.so.5:_ZNK25QMqttConnectionProperties25requestProblemInformationEv
libQt5Mqtt.so.5:_ZNK25QMqttConnectionProperties26requestResponseInformationEv
libQt5Mqtt.so.5:_ZNK27QMqttSubscriptionProperties14userPropertiesEv
libQt5Mqtt.so.5:_ZNK27QMqttSubscriptionProperties22subscriptionIdentifierEv
libQt5Mqtt.so.5:_ZNK28QMqttMessageStatusProperties10reasonCodeEv
libQt5Mqtt.so.5:_ZNK28QMqttMessageStatusProperties14userPropertiesEv
libQt5Mqtt.so.5:_ZNK28QMqttMessageStatusProperties6reasonEv
libQt5Mqtt.so.5:_ZNK29QMqttAuthenticationProperties14userPropertiesEv
libQt5Mqtt.so.5:_ZNK29QMqttAuthenticationProperties18authenticationDataEv
libQt5Mqtt.so.5:_ZNK29QMqttAuthenticationProperties20authenticationMethodEv
libQt5Mqtt.so.5:_ZNK29QMqttAuthenticationProperties6reasonEv
libQt5Mqtt.so.5:_ZNK29QMqttUnsubscriptionProperties14userPropertiesEv
libQt5Mqtt.so.5:_ZNK31QMqttServerConnectionProperties10maximumQoSEv
libQt5Mqtt.so.5:_ZNK31QMqttServerConnectionProperties10reasonCodeEv
libQt5Mqtt.so.5:_ZNK31QMqttServerConnectionProperties15retainAvailableEv
libQt5Mqtt.so.5:_ZNK31QMqttServerConnectionProperties15serverKeepAliveEv
libQt5Mqtt.so.5:_ZNK31QMqttServerConnectionProperties15serverReferenceEv
libQt5Mqtt.so.5:_ZNK31QMqttServerConnectionProperties16clientIdAssignedEv
libQt5Mqtt.so.5:_ZNK31QMqttServerConnectionProperties17wildcardSupportedEv
libQt5Mqtt.so.5:_ZNK31QMqttServerConnectionProperties19availablePropertiesEv
libQt5Mqtt.so.5:_ZNK31QMqttServerConnectionProperties19responseInformationEv
libQt5Mqtt.so.5:_ZNK31QMqttServerConnectionProperties27sharedSubscriptionSupportedEv
libQt5Mqtt.so.5:_ZNK31QMqttServerConnectionProperties31subscriptionIdentifierSupportedEv
libQt5Mqtt.so.5:_ZNK31QMqttServerConnectionProperties6reasonEv
libQt5Mqtt.so.5:_ZNK31QMqttServerConnectionProperties7isValidEv
libQt5Mqtt.so.5:_ZeqRK14QMqttTopicNameS1_
libQt5Mqtt.so.5:_ZeqRK16QMqttTopicFilterS1_
libQt5Mqtt.so.5:_Zls6QDebugRK14QMqttTopicName
libQt5Mqtt.so.5:_Zls6QDebugRK15QMqttStringPair
libQt5Mqtt.so.5:_Zls6QDebugRK16QMqttTopicFilter
libQt5Mqtt.so.5:_ZlsR11QDataStreamRK14QMqttTopicName
libQt5Mqtt.so.5:_ZlsR11QDataStreamRK16QMqttTopicFilter
libQt5Mqtt.so.5:_ZltRK14QMqttTopicNameS1_
libQt5Mqtt.so.5:_ZltRK16QMqttTopicFilterS1_
libQt5Mqtt.so.5:_ZrsR11QDataStreamR14QMqttTopicName
libQt5Mqtt.so.5:_ZrsR11QDataStreamR16QMqttTopicFilter
